; ModuleID = '33/1903.c'
source_filename = "33/1903.c"
target datalayout = "e-m:e-p270:32:32-p271:32:32-p272:64:64-i64:64-f80:128-n8:16:32:64-S128"
target triple = "x86_64-pc-linux-gnu"

@.str = private unnamed_addr constant [3 x i8] c"%d\00", align 1
@.str.1 = private unnamed_addr constant [3 x i8] c"%s\00", align 1
@.str.2 = private unnamed_addr constant [3 x i8] c"%c\00", align 1
@.str.3 = private unnamed_addr constant [2 x i8] c"\0A\00", align 1

; Function Attrs: noinline nounwind uwtable
define dso_local i32 @main(i32 %0, i8** %1) #0 {
  %3 = alloca i32, align 4
  %4 = alloca i32, align 4
  %5 = alloca i8**, align 8
  %6 = alloca [255 x i8], align 16
  %7 = alloca [255 x i8], align 16
  %8 = alloca i32, align 4
  %9 = alloca i32, align 4
  %10 = alloca i32, align 4
  %11 = alloca i32, align 4
  store i32 0, i32* %3, align 4
  store i32 %0, i32* %4, align 4
  store i8** %1, i8*** %5, align 8
  %12 = call i32 (i8*, ...) @__isoc99_scanf(i8* getelementptr inbounds ([3 x i8], [3 x i8]* @.str, i64 0, i64 0), i32* %8)
  store i32 0, i32* %9, align 4
  br label %13

13:                                               ; preds = %61, %2
  %14 = load i32, i32* %9, align 4
  %15 = load i32, i32* %8, align 4
  %16 = icmp slt i32 %14, %15
  br i1 %16, label %17, label %64

17:                                               ; preds = %13
  %18 = getelementptr inbounds [255 x i8], [255 x i8]* %6, i64 0, i64 0
  %19 = call i32 (i8*, ...) @__isoc99_scanf(i8* getelementptr inbounds ([3 x i8], [3 x i8]* @.str.1, i64 0, i64 0), i8* %18)
  %20 = getelementptr inbounds [255 x i8], [255 x i8]* %6, i64 0, i64 0
  %21 = call i64 @strlen(i8* %20) #3
  %22 = trunc i64 %21 to i32
  store i32 %22, i32* %10, align 4
  store i32 0, i32* %11, align 4
  br label %23

23:                                               ; preds = %56, %17
  %24 = load i32, i32* %11, align 4
  %25 = load i32, i32* %10, align 4
  %26 = icmp slt i32 %24, %25
  br i1 %26, label %27, label %59

27:                                               ; preds = %23
  %28 = load i32, i32* %11, align 4
  %29 = sext i32 %28 to i64
  %30 = getelementptr inbounds [255 x i8], [255 x i8]* %6, i64 0, i64 %29
  %31 = load i8, i8* %30, align 1
  %32 = sext i8 %31 to i32
  switch i32 %32, label %49 [
    i32 65, label %33
    i32 84, label %37
    i32 67, label %41
    i32 71, label %45
  ]

33:                                               ; preds = %27
  %34 = load i32, i32* %11, align 4
  %35 = sext i32 %34 to i64
  %36 = getelementptr inbounds [255 x i8], [255 x i8]* %7, i64 0, i64 %35
  store i8 84, i8* %36, align 1
  br label %49

37:                                               ; preds = %27
  %38 = load i32, i32* %11, align 4
  %39 = sext i32 %38 to i64
  %40 = getelementptr inbounds [255 x i8], [255 x i8]* %7, i64 0, i64 %39
  store i8 65, i8* %40, align 1
  br label %49

41:                                               ; preds = %27
  %42 = load i32, i32* %11, align 4
  %43 = sext i32 %42 to i64
  %44 = getelementptr inbounds [255 x i8], [255 x i8]* %7, i64 0, i64 %43
  store i8 71, i8* %44, align 1
  br label %49

45:                                               ; preds = %27
  %46 = load i32, i32* %11, align 4
  %47 = sext i32 %46 to i64
  %48 = getelementptr inbounds [255 x i8], [255 x i8]* %7, i64 0, i64 %47
  store i8 67, i8* %48, align 1
  br label %49

49:                                               ; preds = %27, %45, %41, %37, %33
  %50 = load i32, i32* %11, align 4
  %51 = sext i32 %50 to i64
  %52 = getelementptr inbounds [255 x i8], [255 x i8]* %7, i64 0, i64 %51
  %53 = load i8, i8* %52, align 1
  %54 = sext i8 %53 to i32
  %55 = call i32 (i8*, ...) @printf(i8* getelementptr inbounds ([3 x i8], [3 x i8]* @.str.2, i64 0, i64 0), i32 %54)
  br label %56

56:                                               ; preds = %49
  %57 = load i32, i32* %11, align 4
  %58 = add nsw i32 %57, 1
  store i32 %58, i32* %11, align 4
  br label %23

59:                                               ; preds = %23
  %60 = call i32 (i8*, ...) @printf(i8* getelementptr inbounds ([2 x i8], [2 x i8]* @.str.3, i64 0, i64 0))
  br label %61

61:                                               ; preds = %59
  %62 = load i32, i32* %9, align 4
  %63 = add nsw i32 %62, 1
  store i32 %63, i32* %9, align 4
  br label %13

64:                                               ; preds = %13
  ret i32 0
}

declare dso_local i32 @__isoc99_scanf(i8*, ...) #1

; Function Attrs: nounwind readonly
declare dso_local i64 @strlen(i8*) #2

declare dso_local i32 @printf(i8*, ...) #1


!llvm.module.flags = !{!0}
!llvm.ident = !{!1}

!0 = !{i32 1, !"wchar_size", i32 4}
!1 = !{!"clang version 10.0.0-4ubuntu1 "}
